; Function Attrs: nounwind uwtable
define ptr @l_Lake_multiShortOption_loop___rarg___lambda__1___boxed(ptr noundef %0, ptr noundef %1, ptr noundef %2, ptr noundef %3, ptr noundef %4) #0 {
  %6 = getelementptr inbounds nuw i8, ptr %0, i64 32
  %7 = ptrtoint ptr %1 to i64
  %8 = lshr i64 %7, 1
  %9 = getelementptr inbounds nuw i8, ptr %6, i64 %8
  %10 = load i8, ptr %9, align 1, !tbaa !18
  %11 = icmp sgt i8 %10, -1
  br i1 %11, label %12, label %16

12:                                               ; preds = %5
  %13 = or i64 %7, 1
  %14 = add i64 %13, 2
  %15 = inttoptr i64 %14 to ptr
  br label %l_Lake_multiShortOption_loop___rarg___lambda__1.exit

16:                                               ; preds = %5
  %17 = tail call ptr @lean_string_utf8_next_fast_cold(i64 noundef %8, i8 noundef zeroext %10) #3
  br label %l_Lake_multiShortOption_loop___rarg___lambda__1.exit

l_Lake_multiShortOption_loop___rarg___lambda__1.exit: ; preds = %12, %16
  %.0.i.i = phi ptr [ %15, %12 ], [ %17, %16 ]
  %18 = tail call ptr @l_Lake_multiShortOption_loop___rarg(ptr noundef %2, ptr noundef %3, ptr noundef nonnull %0, ptr noundef %.0.i.i)
  %19 = ptrtoint ptr %4 to i64
  %20 = and i64 %19, 1
  %.not = icmp eq i64 %20, 0
  br i1 %.not, label %21, label %lean_dec.exit8

21:                                               ; preds = %l_Lake_multiShortOption_loop___rarg___lambda__1.exit
  %22 = load i32, ptr %4, align 4, !tbaa !4
  %23 = icmp sgt i32 %22, 1
  br i1 %23, label %24, label %26, !prof !9

24:                                               ; preds = %21
  %25 = add nsw i32 %22, -1
  store i32 %25, ptr %4, align 4, !tbaa !4
  br label %lean_dec.exit8

26:                                               ; preds = %21
  %.not.i = icmp eq i32 %22, 0
  br i1 %.not.i, label %lean_dec.exit8, label %27

27:                                               ; preds = %26
  tail call void @lean_dec_ref_cold(ptr noundef nonnull %4) #3
  br label %lean_dec.exit8

lean_dec.exit8:                                   ; preds = %27, %26, %24, %l_Lake_multiShortOption_loop___rarg___lambda__1.exit
  %28 = and i64 %7, 1
  %.not11 = icmp eq i64 %28, 0
  br i1 %.not11, label %29, label %lean_dec.exit

29:                                               ; preds = %lean_dec.exit8
  %30 = load i32, ptr %1, align 4, !tbaa !4
  %31 = icmp sgt i32 %30, 1
  br i1 %31, label %32, label %34, !prof !9

32:                                               ; preds = %29
  %33 = add nsw i32 %30, -1
  store i32 %33, ptr %1, align 4, !tbaa !4
  br label %lean_dec.exit

34:                                               ; preds = %29
  %.not.i9 = icmp eq i32 %30, 0
  br i1 %.not.i9, label %lean_dec.exit, label %35

35:                                               ; preds = %34
  tail call void @lean_dec_ref_cold(ptr noundef nonnull %1) #3
  br label %lean_dec.exit

lean_dec.exit:                                    ; preds = %35, %34, %32, %lean_dec.exit8
  ret ptr %18
}